target datalayout = "e-m:e-p270:32:32-p271:32:32-p272:64:64-i64:64-i128:128-f80:128-n8:16:32:64-S128"
target triple = "x86_64-pc-linux-gnu"

%"class.google::protobuf::stringpiece_internal::StringPiece" = type { ptr, i64 }

; Function Attrs: inlinehint mustprogress nounwind uwtable
define linkonce_odr noundef nonnull align 8 dereferenceable(8) ptr @_ZSt3minImERKT_S2_S2_(ptr noundef nonnull align 8 dereferenceable(8) %0, ptr noundef nonnull align 8 dereferenceable(8) %1) #6 comdat {
  %3 = alloca ptr, align 8
  %4 = alloca ptr, align 8
  %5 = alloca ptr, align 8
  store ptr %0, ptr %4, align 8, !tbaa !20
  store ptr %1, ptr %5, align 8, !tbaa !20
  %6 = load ptr, ptr %5, align 8, !tbaa !20
  %7 = load i64, ptr %6, align 8, !tbaa !15
  %8 = load ptr, ptr %4, align 8, !tbaa !20
  %9 = load i64, ptr %8, align 8, !tbaa !15
  %10 = icmp ult i64 %7, %9
  br i1 %10, label %11, label %13

11:                                               ; preds = %2
  %12 = load ptr, ptr %5, align 8, !tbaa !20
  store ptr %12, ptr %3, align 8
  br label %15

13:                                               ; preds = %2
  %14 = load ptr, ptr %4, align 8, !tbaa !20
  store ptr %14, ptr %3, align 8
  br label %15

15:                                               ; preds = %13, %11
  %16 = load ptr, ptr %3, align 8
  ret ptr %16
}

; Function Attrs: mustprogress nounwind uwtable
define linkonce_odr hidden noundef zeroext i1 @_ZNK6google8protobuf20stringpiece_internal11StringPiece5emptyEv(ptr noundef nonnull align 8 dereferenceable(16) %0) #2 comdat align 2 {
  %2 = alloca ptr, align 8
  store ptr %0, ptr %2, align 8, !tbaa !8
  %3 = load ptr, ptr %2, align 8
  %4 = getelementptr inbounds nuw %"class.google::protobuf::stringpiece_internal::StringPiece", ptr %3, i32 0, i32 1
  %5 = load i64, ptr %4, align 8, !tbaa !14
  %6 = icmp eq i64 %5, 0
  ret i1 %6
}

; Function Attrs: mustprogress uwtable
define hidden noundef i64 @_ZNK6google8protobuf20stringpiece_internal11StringPiece5rfindEcm(ptr noundef nonnull align 8 dereferenceable(16) %0, i8 noundef signext %1, i64 noundef %2) #0 align 2 {
  %4 = alloca i64, align 8
  %5 = alloca ptr, align 8
  %6 = alloca i8, align 1
  %7 = alloca i64, align 8
  %8 = alloca i64, align 8
  %9 = alloca i64, align 8
  %10 = alloca i32, align 4
  store ptr %0, ptr %5, align 8, !tbaa !8
  store i8 %1, ptr %6, align 1, !tbaa !22
  store i64 %2, ptr %7, align 8, !tbaa !15
  %11 = load ptr, ptr %5, align 8
  %12 = call noundef zeroext i1 @_ZNK6google8protobuf20stringpiece_internal11StringPiece5emptyEv(ptr noundef nonnull align 8 dereferenceable(16) %11)
  br i1 %12, label %13, label %14

13:                                               ; preds = %3
  store i64 -1, ptr %4, align 8
  br label %43

14:                                               ; preds = %3
  call void @llvm.lifetime.start.p0(i64 8, ptr %8) #13
  call void @llvm.lifetime.start.p0(i64 8, ptr %9) #13
  %15 = getelementptr inbounds nuw %"class.google::protobuf::stringpiece_internal::StringPiece", ptr %11, i32 0, i32 1
  %16 = load i64, ptr %15, align 8, !tbaa !14
  %17 = sub i64 %16, 1
  store i64 %17, ptr %9, align 8, !tbaa !15
  %18 = call noundef nonnull align 8 dereferenceable(8) ptr @_ZSt3minImERKT_S2_S2_(ptr noundef nonnull align 8 dereferenceable(8) %7, ptr noundef nonnull align 8 dereferenceable(8) %9)
  %19 = load i64, ptr %18, align 8, !tbaa !15
  call void @llvm.lifetime.end.p0(i64 8, ptr %9) #13
  store i64 %19, ptr %8, align 8, !tbaa !15
  br label %20

20:                                               ; preds = %37, %14
  %21 = getelementptr inbounds nuw %"class.google::protobuf::stringpiece_internal::StringPiece", ptr %11, i32 0, i32 0
  %22 = load ptr, ptr %21, align 8, !tbaa !10
  %23 = load i64, ptr %8, align 8, !tbaa !15
  %24 = getelementptr inbounds nuw i8, ptr %22, i64 %23
  %25 = load i8, ptr %24, align 1, !tbaa !22
  %26 = sext i8 %25 to i32
  %27 = load i8, ptr %6, align 1, !tbaa !22
  %28 = sext i8 %27 to i32
  %29 = icmp eq i32 %26, %28
  br i1 %29, label %30, label %32

30:                                               ; preds = %20
  %31 = load i64, ptr %8, align 8, !tbaa !15
  store i64 %31, ptr %4, align 8
  store i32 1, ptr %10, align 4
  br label %40

32:                                               ; preds = %20
  %33 = load i64, ptr %8, align 8, !tbaa !15
  %34 = icmp eq i64 %33, 0
  br i1 %34, label %35, label %36

35:                                               ; preds = %32
  store i32 2, ptr %10, align 4
  br label %40

36:                                               ; preds = %32
  br label %37

37:                                               ; preds = %36
  %38 = load i64, ptr %8, align 8, !tbaa !15
  %39 = add i64 %38, -1
  store i64 %39, ptr %8, align 8, !tbaa !15
  br label %20, !llvm.loop !23

40:                                               ; preds = %35, %30
  call void @llvm.lifetime.end.p0(i64 8, ptr %8) #13
  %41 = load i32, ptr %10, align 4
  switch i32 %41, label %45 [
    i32 1, label %43
    i32 2, label %42
  ]

42:                                               ; preds = %40
  store i64 -1, ptr %4, align 8
  br label %43

43:                                               ; preds = %42, %40, %13
  %44 = load i64, ptr %4, align 8
  ret i64 %44

45:                                               ; preds = %40
  unreachable
}